   1               		.file	"BarMeter.c"
   2               	__SREG__ = 0x3f
   3               	__SP_H__ = 0x3e
   4               	__SP_L__ = 0x3d
   5               	__CCP__ = 0x34
   6               	__tmp_reg__ = 0
   7               	__zero_reg__ = 1
   8               		.global __do_copy_data
   9               		.global __do_clear_bss
  11               		.text
  12               	.Ltext0:
 105               	.global	BarMeter_init
 107               	BarMeter_init:
   1:BarMeter.c    **** #include <avr/io.h>
   2:BarMeter.c    **** #include <util/delay.h>
   3:BarMeter.c    **** #include <avr/interrupt.h>
   4:BarMeter.c    **** #include "lcd.h"
   5:BarMeter.c    **** 
   6:BarMeter.c    **** 
   7:BarMeter.c    **** #define         BarMeter_N          8
   8:BarMeter.c    **** #define         BarMeter_MIN        0.0
   9:BarMeter.c    **** #define         BarMeter_MAX        100
  10:BarMeter.c    **** 
  11:BarMeter.c    **** float    BarMeter_INTG = (BarMeter_MAX-BarMeter_MIN)/BarMeter_N;
  12:BarMeter.c    **** 
  13:BarMeter.c    **** void BarMeter_init(void){
 109               	.LM0:
 110               	.LFBB1:
 111 0000 DF92      		push r13
 112 0002 EF92      		push r14
 113 0004 FF92      		push r15
 114 0006 0F93      		push r16
 115 0008 1F93      		push r17
 116 000a CF93      		push r28
 117 000c DF93      		push r29
 118               	/* prologue: function */
 119               	/* frame size = 0 */
 120               	/* stack size = 7 */
 121               	.L__stack_usage = 7
  14:BarMeter.c    ****     unsigned int code;
  15:BarMeter.c    ****     unsigned int addr;
  16:BarMeter.c    ****     
  17:BarMeter.c    ****     // define User-characters
  18:BarMeter.c    ****     for(code=0;code<6;code++){
 123               	.LM1:
 124 000e 00E0      		ldi r16,lo8(0)
 125 0010 10E0      		ldi r17,hi8(0)
  19:BarMeter.c    ****         for(addr=0;addr<8;addr++){
  20:BarMeter.c    ****             lcd_set_CGRAMaddr(code,addr);
  21:BarMeter.c    ****             if( (addr > 1) & (addr < 6) )
  22:BarMeter.c    ****                 lcd_set_char(~(0x1f>>code));
 127               	.LM2:
 128 0012 8FE1      		ldi r24,lo8(31)
 129 0014 E82E      		mov r14,r24
 130 0016 F12C      		mov r15,__zero_reg__
 131 0018 00C0      		rjmp .L2
 132               	.L9:
  20:BarMeter.c    ****             lcd_set_CGRAMaddr(code,addr);
 134               	.LM3:
 135 001a 802F      		mov r24,r16
 136 001c 6C2F      		mov r22,r28
 137 001e 00D0      		rcall lcd_set_CGRAMaddr
  21:BarMeter.c    ****             if( (addr > 1) & (addr < 6) )
 139               	.LM4:
 140 0020 9E01      		movw r18,r28
 141 0022 2250      		subi r18,lo8(-(-2))
 142 0024 3040      		sbci r19,hi8(-(-2))
 143 0026 2430      		cpi r18,4
 144 0028 3105      		cpc r19,__zero_reg__
 145 002a 00F4      		brsh .L3
 147               	.LM5:
 148 002c 8D2D      		mov r24,r13
 149 002e 00C0      		rjmp .L14
 150               	.L3:
  23:BarMeter.c    ****             else if( (addr == 6) | (addr == 1) ) lcd_set_char(0x00);
 152               	.LM6:
 153 0030 C130      		cpi r28,1
 154 0032 D105      		cpc r29,__zero_reg__
 155 0034 01F0      		breq .L11
 156 0036 C630      		cpi r28,6
 157 0038 D105      		cpc r29,__zero_reg__
 158 003a 01F4      		brne .L13
 159               	.L11:
 161               	.LM7:
 162 003c 80E0      		ldi r24,lo8(0)
 163 003e 00C0      		rjmp .L14
 164               	.L13:
  24:BarMeter.c    ****             else                                 lcd_set_char(0x10);
 166               	.LM8:
 167 0040 80E1      		ldi r24,lo8(16)
 168               	.L14:
 169 0042 00D0      		rcall lcd_set_char
  19:BarMeter.c    ****         for(addr=0;addr<8;addr++){
 171               	.LM9:
 172 0044 2196      		adiw r28,1
 173 0046 C830      		cpi r28,8
 174 0048 D105      		cpc r29,__zero_reg__
 175 004a 01F4      		brne .L9
  18:BarMeter.c    ****     for(code=0;code<6;code++){
 177               	.LM10:
 178 004c 0F5F      		subi r16,lo8(-(1))
 179 004e 1F4F      		sbci r17,hi8(-(1))
 180 0050 0630      		cpi r16,6
 181 0052 1105      		cpc r17,__zero_reg__
 182 0054 01F0      		breq .L1
 183               	.L2:
  22:BarMeter.c    ****                 lcd_set_char(~(0x1f>>code));
 185               	.LM11:
 186 0056 C701      		movw r24,r14
 187 0058 002E      		mov r0,r16
 188 005a 00C0      		rjmp 2f
 189 005c 9595      	1:	asr r25
 190 005e 8795      		ror r24
 191 0060 0A94      	2:	dec r0
 192 0062 02F4      		brpl 1b
 193 0064 D82E      		mov r13,r24
 194 0066 D094      		com r13
 195 0068 C0E0      		ldi r28,lo8(0)
 196 006a D0E0      		ldi r29,hi8(0)
 197 006c 00C0      		rjmp .L9
 198               	.L1:
 199               	/* epilogue start */
  25:BarMeter.c    ****         }
  26:BarMeter.c    ****     }
  27:BarMeter.c    **** }
 201               	.LM12:
 202 006e DF91      		pop r29
 203 0070 CF91      		pop r28
 204 0072 1F91      		pop r17
 205 0074 0F91      		pop r16
 206 0076 FF90      		pop r15
 207 0078 EF90      		pop r14
 208 007a DF90      		pop r13
 209 007c 0895      		ret
 215               	.Lscope1:
 217               	.global	BarMeter_disp
 219               	BarMeter_disp:
  28:BarMeter.c    **** 
  29:BarMeter.c    **** void BarMeter_disp(unsigned int data){
 221               	.LM13:
 222               	.LFBB2:
 223 007e 4F92      		push r4
 224 0080 5F92      		push r5
 225 0082 7F92      		push r7
 226 0084 8F92      		push r8
 227 0086 9F92      		push r9
 228 0088 AF92      		push r10
 229 008a BF92      		push r11
 230 008c CF92      		push r12
 231 008e DF92      		push r13
 232 0090 EF92      		push r14
 233 0092 FF92      		push r15
 234 0094 0F93      		push r16
 235 0096 1F93      		push r17
 236 0098 CF93      		push r28
 237 009a DF93      		push r29
 238               	/* prologue: function */
 239               	/* frame size = 0 */
 240               	/* stack size = 15 */
 241               	.L__stack_usage = 15
  30:BarMeter.c    ****     
  31:BarMeter.c    ****     unsigned int    conv_data;
  32:BarMeter.c    ****     
  33:BarMeter.c    ****     unsigned char   INTG;
  34:BarMeter.c    ****     unsigned char   FRAC;
  35:BarMeter.c    ****     unsigned int    n;
  36:BarMeter.c    ****     
  37:BarMeter.c    ****     if( data > BarMeter_MAX ){
  38:BarMeter.c    ****         data = BarMeter_MAX;
  39:BarMeter.c    ****     }else if( data < BarMeter_MIN ){
  40:BarMeter.c    ****         data = BarMeter_MIN;
  41:BarMeter.c    ****     }
  42:BarMeter.c    ****     
  43:BarMeter.c    ****     conv_data = data - BarMeter_MIN;
 243               	.LM14:
 244 009c BC01      		movw r22,r24
 245 009e 8536      		cpi r24,101
 246 00a0 9105      		cpc r25,__zero_reg__
 247 00a2 00F0      		brlo .L16
 248 00a4 64E6      		ldi r22,lo8(100)
 249 00a6 70E0      		ldi r23,hi8(100)
 250               	.L16:
 251 00a8 80E0      		ldi r24,lo8(0)
 252 00aa 90E0      		ldi r25,hi8(0)
 253 00ac 00D0      		rcall __floatunsisf
 254 00ae 00D0      		rcall __fixunssfsi
  44:BarMeter.c    ****     INTG = (unsigned int)(conv_data/BarMeter_INTG);
 256               	.LM15:
 257 00b0 80E0      		ldi r24,lo8(0)
 258 00b2 90E0      		ldi r25,hi8(0)
 259 00b4 00D0      		rcall __floatunsisf
 260 00b6 4B01      		movw r8,r22
 261 00b8 5C01      		movw r10,r24
 262 00ba C090 0000 		lds r12,BarMeter_INTG
 263 00be D090 0000 		lds r13,BarMeter_INTG+1
 264 00c2 E090 0000 		lds r14,BarMeter_INTG+2
 265 00c6 F090 0000 		lds r15,BarMeter_INTG+3
 266 00ca A701      		movw r20,r14
 267 00cc 9601      		movw r18,r12
 268 00ce 00D0      		rcall __divsf3
 269 00d0 00D0      		rcall __fixunssfsi
 270 00d2 762E      		mov r7,r22
  45:BarMeter.c    ****     FRAC = (unsigned int)((conv_data - BarMeter_INTG*INTG)*1.0/BarMeter_INTG * 5);
 272               	.LM16:
 273 00d4 062F      		mov r16,r22
 274 00d6 10E0      		ldi r17,lo8(0)
  46:BarMeter.c    **** 
  47:BarMeter.c    ****     for(n=0;n<INTG;n++){
 276               	.LM17:
 277 00d8 C0E0      		ldi r28,lo8(0)
 278 00da D0E0      		ldi r29,hi8(0)
 279 00dc 2801      		movw r4,r16
 280 00de 00C0      		rjmp .L17
 281               	.L18:
  48:BarMeter.c    ****         lcd_set_char(0x5);
 283               	.LM18:
 284 00e0 85E0      		ldi r24,lo8(5)
 285 00e2 00D0      		rcall lcd_set_char
  47:BarMeter.c    ****     for(n=0;n<INTG;n++){
 287               	.LM19:
 288 00e4 2196      		adiw r28,1
 289               	.L17:
  47:BarMeter.c    ****     for(n=0;n<INTG;n++){
 291               	.LM20:
 292 00e6 C415      		cp r28,r4
 293 00e8 D505      		cpc r29,r5
 294 00ea 00F0      		brlo .L18
  49:BarMeter.c    ****     }
  50:BarMeter.c    ****     if( INTG != BarMeter_N ) lcd_set_char(FRAC);
 296               	.LM21:
 297 00ec 88E0      		ldi r24,lo8(8)
 298 00ee 7816      		cp r7,r24
 299 00f0 01F0      		breq .L19
  45:BarMeter.c    ****     FRAC = (unsigned int)((conv_data - BarMeter_INTG*INTG)*1.0/BarMeter_INTG * 5);
 301               	.LM22:
 302 00f2 B801      		movw r22,r16
 303 00f4 8827      		clr r24
 304 00f6 77FD      		sbrc r23,7
 305 00f8 8095      		com r24
 306 00fa 982F      		mov r25,r24
 307 00fc 00D0      		rcall __floatsisf
 308 00fe 9B01      		movw r18,r22
 309 0100 AC01      		movw r20,r24
 310 0102 C701      		movw r24,r14
 311 0104 B601      		movw r22,r12
 312 0106 00D0      		rcall __mulsf3
 313 0108 9B01      		movw r18,r22
 314 010a AC01      		movw r20,r24
 315 010c C501      		movw r24,r10
 316 010e B401      		movw r22,r8
 317 0110 00D0      		rcall __subsf3
 318 0112 A701      		movw r20,r14
 319 0114 9601      		movw r18,r12
 320 0116 00D0      		rcall __divsf3
 321 0118 20E0      		ldi r18,lo8(0x40a00000)
 322 011a 30E0      		ldi r19,hi8(0x40a00000)
 323 011c 40EA      		ldi r20,hlo8(0x40a00000)
 324 011e 50E4      		ldi r21,hhi8(0x40a00000)
 325 0120 00D0      		rcall __mulsf3
 326 0122 00D0      		rcall __fixunssfsi
 328               	.LM23:
 329 0124 862F      		mov r24,r22
 330 0126 00D0      		rcall lcd_set_char
 331               	.L19:
  51:BarMeter.c    ****     for(n=INTG+1;n<BarMeter_N;n++){
 333               	.LM24:
 334 0128 C0E0      		ldi r28,lo8(0)
 335 012a D0E0      		ldi r29,hi8(0)
 336 012c 00C0      		rjmp .L20
 337               	.L21:
  52:BarMeter.c    ****         lcd_set_char(0x0);
 339               	.LM25:
 340 012e 80E0      		ldi r24,lo8(0)
 341 0130 00D0      		rcall lcd_set_char
 342               	.L20:
 344               	.LM26:
 345 0132 2196      		adiw r28,1
  51:BarMeter.c    ****     for(n=INTG+1;n<BarMeter_N;n++){
 347               	.LM27:
 348 0134 CE01      		movw r24,r28
 349 0136 840D      		add r24,r4
 350 0138 951D      		adc r25,r5
 351 013a 8830      		cpi r24,8
 352 013c 9105      		cpc r25,__zero_reg__
 353 013e 00F0      		brlo .L21
 354               	/* epilogue start */
  53:BarMeter.c    ****     }
  54:BarMeter.c    **** 
  55:BarMeter.c    **** }
 356               	.LM28:
 357 0140 DF91      		pop r29
 358 0142 CF91      		pop r28
 359 0144 1F91      		pop r17
 360 0146 0F91      		pop r16
 361 0148 FF90      		pop r15
 362 014a EF90      		pop r14
 363 014c DF90      		pop r13
 364 014e CF90      		pop r12
 365 0150 BF90      		pop r11
 366 0152 AF90      		pop r10
 367 0154 9F90      		pop r9
 368 0156 8F90      		pop r8
 369 0158 7F90      		pop r7
 370 015a 5F90      		pop r5
 371 015c 4F90      		pop r4
 372 015e 0895      		ret
 377               	.Lscope2:
 378               	.global	BarMeter_INTG
 379               		.data
 382               	BarMeter_INTG:
 383 0000 00        		.byte	0
 384 0001 00        		.byte	0
 385 0002 48        		.byte	72
 386 0003 41        		.byte	65
 388               		.text
 390               	.Letext0:
DEFINED SYMBOLS
                            *ABS*:00000000 BarMeter.c
/var/folders/v3/wysfpd052nz8jkbx04pk0ym80000gn/T//ccgzxILF.s:2      *ABS*:0000003f __SREG__
/var/folders/v3/wysfpd052nz8jkbx04pk0ym80000gn/T//ccgzxILF.s:3      *ABS*:0000003e __SP_H__
/var/folders/v3/wysfpd052nz8jkbx04pk0ym80000gn/T//ccgzxILF.s:4      *ABS*:0000003d __SP_L__
/var/folders/v3/wysfpd052nz8jkbx04pk0ym80000gn/T//ccgzxILF.s:5      *ABS*:00000034 __CCP__
/var/folders/v3/wysfpd052nz8jkbx04pk0ym80000gn/T//ccgzxILF.s:6      *ABS*:00000000 __tmp_reg__
/var/folders/v3/wysfpd052nz8jkbx04pk0ym80000gn/T//ccgzxILF.s:7      *ABS*:00000001 __zero_reg__
/var/folders/v3/wysfpd052nz8jkbx04pk0ym80000gn/T//ccgzxILF.s:107    .text:00000000 BarMeter_init
/var/folders/v3/wysfpd052nz8jkbx04pk0ym80000gn/T//ccgzxILF.s:219    .text:0000007e BarMeter_disp
/var/folders/v3/wysfpd052nz8jkbx04pk0ym80000gn/T//ccgzxILF.s:382    .data:00000000 BarMeter_INTG

UNDEFINED SYMBOLS
__do_copy_data
__do_clear_bss
lcd_set_CGRAMaddr
lcd_set_char
__floatunsisf
__fixunssfsi
__divsf3
__floatsisf
__mulsf3
__subsf3
